target datalayout = "e-m:e-p270:32:32-p271:32:32-p272:64:64-i64:64-i128:128-f80:128-n8:16:32:64-S128"
target triple = "x86_64-pc-linux-gnu"

%struct.EC_builtin_curve = type { i32, ptr }

@.str.86 = private unnamed_addr constant [12 x i8] c"list curves\00", align 1
@.str.87 = private unnamed_addr constant [32 x i8] c"CURVE DESCRIPTION NOT AVAILABLE\00", align 1
@.str.88 = private unnamed_addr constant [1 x i8] zeroinitializer, align 1
@.str.89 = private unnamed_addr constant [10 x i8] c"  %-10s: \00", align 1
@.str.90 = private unnamed_addr constant [4 x i8] c"%s\0A\00", align 1
@.str.91 = private unnamed_addr constant [26 x i8] c"../openssl/apps/ecparam.c\00", align 1

; Function Attrs: nounwind uwtable
define internal i32 @list_builtin_curves(ptr noundef %0) #0 {
  %2 = alloca ptr, align 8
  %3 = alloca i32, align 4
  %4 = alloca ptr, align 8
  %5 = alloca i64, align 8
  %6 = alloca i64, align 8
  %7 = alloca ptr, align 8
  %8 = alloca ptr, align 8
  store ptr %0, ptr %2, align 8, !tbaa !21
  call void @llvm.lifetime.start.p0(i64 4, ptr %3) #5
  store i32 0, ptr %3, align 4, !tbaa !4
  call void @llvm.lifetime.start.p0(i64 8, ptr %4) #5
  store ptr null, ptr %4, align 8, !tbaa !30
  call void @llvm.lifetime.start.p0(i64 8, ptr %5) #5
  call void @llvm.lifetime.start.p0(i64 8, ptr %6) #5
  %9 = call i64 @EC_get_builtin_curves(ptr noundef null, i64 noundef 0)
  store i64 %9, ptr %6, align 8, !tbaa !31
  %10 = load i64, ptr %6, align 8, !tbaa !31
  %11 = mul i64 16, %10
  %12 = call ptr @app_malloc(i64 noundef %11, ptr noundef @.str.86)
  store ptr %12, ptr %4, align 8, !tbaa !30
  %13 = load ptr, ptr %4, align 8, !tbaa !30
  %14 = load i64, ptr %6, align 8, !tbaa !31
  %15 = call i64 @EC_get_builtin_curves(ptr noundef %13, i64 noundef %14)
  %16 = icmp ne i64 %15, 0
  br i1 %16, label %18, label %17

17:                                               ; preds = %1
  br label %53

18:                                               ; preds = %1
  store i64 0, ptr %5, align 8, !tbaa !31
  br label %19

19:                                               ; preds = %49, %18
  %20 = load i64, ptr %5, align 8, !tbaa !31
  %21 = load i64, ptr %6, align 8, !tbaa !31
  %22 = icmp ult i64 %20, %21
  br i1 %22, label %23, label %52

23:                                               ; preds = %19
  call void @llvm.lifetime.start.p0(i64 8, ptr %7) #5
  %24 = load ptr, ptr %4, align 8, !tbaa !30
  %25 = load i64, ptr %5, align 8, !tbaa !31
  %26 = getelementptr inbounds nuw %struct.EC_builtin_curve, ptr %24, i64 %25
  %27 = getelementptr inbounds nuw %struct.EC_builtin_curve, ptr %26, i32 0, i32 1
  %28 = load ptr, ptr %27, align 8, !tbaa !33
  store ptr %28, ptr %7, align 8, !tbaa !23
  call void @llvm.lifetime.start.p0(i64 8, ptr %8) #5
  %29 = load ptr, ptr %4, align 8, !tbaa !30
  %30 = load i64, ptr %5, align 8, !tbaa !31
  %31 = getelementptr inbounds nuw %struct.EC_builtin_curve, ptr %29, i64 %30
  %32 = getelementptr inbounds nuw %struct.EC_builtin_curve, ptr %31, i32 0, i32 0
  %33 = load i32, ptr %32, align 8, !tbaa !35
  %34 = call ptr @OBJ_nid2sn(i32 noundef %33)
  store ptr %34, ptr %8, align 8, !tbaa !23
  %35 = load ptr, ptr %7, align 8, !tbaa !23
  %36 = icmp eq ptr %35, null
  br i1 %36, label %37, label %38

37:                                               ; preds = %23
  store ptr @.str.87, ptr %7, align 8, !tbaa !23
  br label %38

38:                                               ; preds = %37, %23
  %39 = load ptr, ptr %8, align 8, !tbaa !23
  %40 = icmp eq ptr %39, null
  br i1 %40, label %41, label %42

41:                                               ; preds = %38
  store ptr @.str.88, ptr %8, align 8, !tbaa !23
  br label %42

42:                                               ; preds = %41, %38
  %43 = load ptr, ptr %2, align 8, !tbaa !21
  %44 = load ptr, ptr %8, align 8, !tbaa !23
  %45 = call i32 (ptr, ptr, ...) @BIO_printf(ptr noundef %43, ptr noundef @.str.89, ptr noundef %44)
  %46 = load ptr, ptr %2, align 8, !tbaa !21
  %47 = load ptr, ptr %7, align 8, !tbaa !23
  %48 = call i32 (ptr, ptr, ...) @BIO_printf(ptr noundef %46, ptr noundef @.str.90, ptr noundef %47)
  call void @llvm.lifetime.end.p0(i64 8, ptr %8) #5
  call void @llvm.lifetime.end.p0(i64 8, ptr %7) #5
  br label %49

49:                                               ; preds = %42
  %50 = load i64, ptr %5, align 8, !tbaa !31
  %51 = add i64 %50, 1
  store i64 %51, ptr %5, align 8, !tbaa !31
  br label %19, !llvm.loop !36

52:                                               ; preds = %19
  store i32 1, ptr %3, align 4, !tbaa !4
  br label %53

53:                                               ; preds = %52, %17
  %54 = load ptr, ptr %4, align 8, !tbaa !30
  call void @CRYPTO_free(ptr noundef %54, ptr noundef @.str.91, i32 noundef 92)
  %55 = load i32, ptr %3, align 4, !tbaa !4
  call void @llvm.lifetime.end.p0(i64 8, ptr %6) #5
  call void @llvm.lifetime.end.p0(i64 8, ptr %5) #5
  call void @llvm.lifetime.end.p0(i64 8, ptr %4) #5
  call void @llvm.lifetime.end.p0(i64 4, ptr %3) #5
  ret i32 %55
}