; Function Attrs: nounwind uwtable
define internal fastcc range(i32 0, 2) i32 @list_builtin_curves(ptr noundef nonnull %0) unnamed_addr #0 {
  %2 = tail call i64 @EC_get_builtin_curves(ptr noundef null, i64 noundef 0) #5
  %3 = shl i64 %2, 4
  %4 = tail call ptr @app_malloc(i64 noundef %3, ptr noundef nonnull @.str.86) #5
  %5 = tail call i64 @EC_get_builtin_curves(ptr noundef %4, i64 noundef %2) #5
  %.not = icmp eq i64 %5, 0
  br i1 %.not, label %.loopexit, label %.preheader

.preheader:                                       ; preds = %1
  %.not20 = icmp eq i64 %2, 0
  br i1 %.not20, label %.loopexit, label %.lr.ph

.lr.ph:                                           ; preds = %.preheader, %.lr.ph
  %.01819 = phi i64 [ %15, %.lr.ph ], [ 0, %.preheader ]
  %6 = getelementptr inbounds nuw %struct.EC_builtin_curve, ptr %4, i64 %.01819
  %7 = getelementptr inbounds nuw i8, ptr %6, i64 8
  %8 = load ptr, ptr %7, align 8, !tbaa !21
  %9 = load i32, ptr %6, align 8, !tbaa !23
  %10 = tail call ptr @OBJ_nid2sn(i32 noundef %9) #5
  %11 = icmp eq ptr %8, null
  %spec.store.select = select i1 %11, ptr @.str.87, ptr %8
  %12 = icmp eq ptr %10, null
  %spec.store.select1 = select i1 %12, ptr @.str.88, ptr %10
  %13 = tail call i32 (ptr, ptr, ...) @BIO_printf(ptr noundef nonnull %0, ptr noundef nonnull @.str.89, ptr noundef nonnull %spec.store.select1) #5
  %14 = tail call i32 (ptr, ptr, ...) @BIO_printf(ptr noundef nonnull %0, ptr noundef nonnull @.str.90, ptr noundef nonnull %spec.store.select) #5
  %15 = add nuw i64 %.01819, 1
  %exitcond.not = icmp eq i64 %15, %2
  br i1 %exitcond.not, label %.loopexit, label %.lr.ph, !llvm.loop !24

.loopexit:                                        ; preds = %.lr.ph, %.preheader, %1
  %.0 = phi i32 [ 0, %1 ], [ 1, %.preheader ], [ 1, %.lr.ph ]
  tail call void @CRYPTO_free(ptr noundef %4, ptr noundef nonnull @.str.91, i32 noundef 92) #5
  ret i32 %.0
}